target datalayout = "e-m:e-p270:32:32-p271:32:32-p272:64:64-i64:64-i128:128-f80:128-n8:16:32:64-S128"
target triple = "x86_64-pc-linux-gnu"

%struct.X11GraphicsConfigIDs = type { ptr, ptr }
%struct.JNINativeInterface_ = type { ptr, ptr, ptr, ptr, ptr, ptr, ptr, ptr, ptr, ptr, ptr, ptr, ptr, ptr, ptr, ptr, ptr, ptr, ptr, ptr, ptr, ptr, ptr, ptr, ptr, ptr, ptr, ptr, ptr, ptr, ptr, ptr, ptr, ptr, ptr, ptr, ptr, ptr, ptr, ptr, ptr, ptr, ptr, ptr, ptr, ptr, ptr, ptr, ptr, ptr, ptr, ptr, ptr, ptr, ptr, ptr, ptr, ptr, ptr, ptr, ptr, ptr, ptr, ptr, ptr, ptr, ptr, ptr, ptr, ptr, ptr, ptr, ptr, ptr, ptr, ptr, ptr, ptr, ptr, ptr, ptr, ptr, ptr, ptr, ptr, ptr, ptr, ptr, ptr, ptr, ptr, ptr, ptr, ptr, ptr, ptr, ptr, ptr, ptr, ptr, ptr, ptr, ptr, ptr, ptr, ptr, ptr, ptr, ptr, ptr, ptr, ptr, ptr, ptr, ptr, ptr, ptr, ptr, ptr, ptr, ptr, ptr, ptr, ptr, ptr, ptr, ptr, ptr, ptr, ptr, ptr, ptr, ptr, ptr, ptr, ptr, ptr, ptr, ptr, ptr, ptr, ptr, ptr, ptr, ptr, ptr, ptr, ptr, ptr, ptr, ptr, ptr, ptr, ptr, ptr, ptr, ptr, ptr, ptr, ptr, ptr, ptr, ptr, ptr, ptr, ptr, ptr, ptr, ptr, ptr, ptr, ptr, ptr, ptr, ptr, ptr, ptr, ptr, ptr, ptr, ptr, ptr, ptr, ptr, ptr, ptr, ptr, ptr, ptr, ptr, ptr, ptr, ptr, ptr, ptr, ptr, ptr, ptr, ptr, ptr, ptr, ptr, ptr, ptr, ptr, ptr, ptr, ptr, ptr, ptr, ptr, ptr, ptr, ptr, ptr, ptr, ptr, ptr, ptr, ptr, ptr, ptr, ptr, ptr, ptr, ptr, ptr, ptr, ptr, ptr, ptr, ptr, ptr, ptr, ptr }
%struct._X11SDOps = type { %struct._SurfaceDataOps, ptr, ptr, i8, i8, ptr, i64, ptr, ptr, i32, i32, ptr, ptr, i64, i32, i8, i32, i32, i64, %struct.ShmPixmapData }
%struct._SurfaceDataOps = type { ptr, ptr, ptr, ptr, ptr, ptr, ptr }
%struct.ShmPixmapData = type { ptr, i32, i8, i64, i8, i64, i64, i32, i32, i32, i32 }
%struct._AwtGraphicsConfigData = type { i32, i64, %struct.XVisualInfo, i32, ptr, ptr, ptr, i64, i32, i32, ptr, i32, ptr, ptr, i32, %struct.XRenderPictFormat }
%struct.XVisualInfo = type { ptr, i64, i32, i32, i32, i64, i64, i64, i32, i32 }
%struct.XRenderPictFormat = type { i64, i32, i32, %struct.XRenderDirectFormat, i64 }
%struct.XRenderDirectFormat = type { i16, i16, i16, i16, i16, i16, i16, i16 }
%union.jvalue = type { i64 }

@.str.7 = private unnamed_addr constant [38 x i8] c"Initialization of SurfaceData failed.\00", align 1
@.str.8 = private unnamed_addr constant [10 x i8] c"getWindow\00", align 1
@.str.9 = private unnamed_addr constant [4 x i8] c"()J\00", align 1
@x11GraphicsConfigIDs = external global %struct.X11GraphicsConfigIDs, align 8
@.str.10 = private unnamed_addr constant [41 x i8] c"Native GraphicsConfig data block missing\00", align 1

; Function Attrs: nounwind uwtable
define void @Java_sun_java2d_x11_XSurfaceData_initOps(ptr noundef %0, ptr noundef %1, ptr noundef %2, ptr noundef %3, i32 noundef %4) #0 {
  %6 = alloca ptr, align 8
  %7 = alloca ptr, align 8
  %8 = alloca ptr, align 8
  %9 = alloca ptr, align 8
  %10 = alloca i32, align 4
  %11 = alloca ptr, align 8
  %12 = alloca i8, align 1
  %13 = alloca %union.jvalue, align 8
  store ptr %0, ptr %6, align 8
  store ptr %1, ptr %7, align 8
  store ptr %2, ptr %8, align 8
  store ptr %3, ptr %9, align 8
  store i32 %4, ptr %10, align 4
  %14 = load ptr, ptr %6, align 8
  %15 = load ptr, ptr %7, align 8
  %16 = call ptr @SurfaceData_InitOps(ptr noundef %14, ptr noundef %15, i32 noundef 232)
  store ptr %16, ptr %11, align 8
  %17 = load ptr, ptr %11, align 8
  %18 = icmp eq ptr %17, null
  br i1 %18, label %19, label %21

19:                                               ; preds = %5
  %20 = load ptr, ptr %6, align 8
  call void @JNU_ThrowOutOfMemoryError(ptr noundef %20, ptr noundef @.str.7)
  br label %151

21:                                               ; preds = %5
  %22 = load ptr, ptr %11, align 8
  %23 = getelementptr inbounds %struct._X11SDOps, ptr %22, i32 0, i32 0
  %24 = getelementptr inbounds %struct._SurfaceDataOps, ptr %23, i32 0, i32 0
  store ptr @X11SD_Lock, ptr %24, align 8
  %25 = load ptr, ptr %11, align 8
  %26 = getelementptr inbounds %struct._X11SDOps, ptr %25, i32 0, i32 0
  %27 = getelementptr inbounds %struct._SurfaceDataOps, ptr %26, i32 0, i32 1
  store ptr @X11SD_GetRasInfo, ptr %27, align 8
  %28 = load ptr, ptr %11, align 8
  %29 = getelementptr inbounds %struct._X11SDOps, ptr %28, i32 0, i32 0
  %30 = getelementptr inbounds %struct._SurfaceDataOps, ptr %29, i32 0, i32 3
  store ptr @X11SD_Unlock, ptr %30, align 8
  %31 = load ptr, ptr %11, align 8
  %32 = getelementptr inbounds %struct._X11SDOps, ptr %31, i32 0, i32 0
  %33 = getelementptr inbounds %struct._SurfaceDataOps, ptr %32, i32 0, i32 5
  store ptr @X11SD_Dispose, ptr %33, align 8
  %34 = load ptr, ptr %11, align 8
  %35 = getelementptr inbounds %struct._X11SDOps, ptr %34, i32 0, i32 1
  store ptr @X11SD_GetPixmapWithBg, ptr %35, align 8
  %36 = load ptr, ptr %11, align 8
  %37 = getelementptr inbounds %struct._X11SDOps, ptr %36, i32 0, i32 2
  store ptr @X11SD_ReleasePixmapWithBg, ptr %37, align 8
  %38 = load ptr, ptr %8, align 8
  %39 = icmp ne ptr %38, null
  br i1 %39, label %40, label %52

40:                                               ; preds = %21
  %41 = load ptr, ptr %6, align 8
  %42 = load ptr, ptr %8, align 8
  %43 = call i64 (ptr, ptr, ptr, ptr, ptr, ...) @JNU_CallMethodByName(ptr noundef %41, ptr noundef %12, ptr noundef %42, ptr noundef @.str.8, ptr noundef @.str.9)
  %44 = getelementptr inbounds %union.jvalue, ptr %13, i32 0, i32 0
  store i64 %43, ptr %44, align 8
  %45 = load i64, ptr %13, align 8
  %46 = load ptr, ptr %11, align 8
  %47 = getelementptr inbounds %struct._X11SDOps, ptr %46, i32 0, i32 6
  store i64 %45, ptr %47, align 8
  %48 = load i8, ptr %12, align 1
  %49 = icmp ne i8 %48, 0
  br i1 %49, label %50, label %51

50:                                               ; preds = %40
  br label %151

51:                                               ; preds = %40
  br label %55

52:                                               ; preds = %21
  %53 = load ptr, ptr %11, align 8
  %54 = getelementptr inbounds %struct._X11SDOps, ptr %53, i32 0, i32 6
  store i64 0, ptr %54, align 8
  br label %55

55:                                               ; preds = %52, %51
  %56 = load i32, ptr %10, align 4
  %57 = load ptr, ptr %11, align 8
  %58 = getelementptr inbounds %struct._X11SDOps, ptr %57, i32 0, i32 9
  store i32 %56, ptr %58, align 8
  %59 = load ptr, ptr %11, align 8
  %60 = getelementptr inbounds %struct._X11SDOps, ptr %59, i32 0, i32 4
  store i8 0, ptr %60, align 1
  %61 = load ptr, ptr %11, align 8
  %62 = getelementptr inbounds %struct._X11SDOps, ptr %61, i32 0, i32 13
  store i64 0, ptr %62, align 8
  %63 = load ptr, ptr %11, align 8
  %64 = getelementptr inbounds %struct._X11SDOps, ptr %63, i32 0, i32 14
  store i32 0, ptr %64, align 8
  %65 = load ptr, ptr %11, align 8
  %66 = getelementptr inbounds %struct._X11SDOps, ptr %65, i32 0, i32 15
  store i8 0, ptr %66, align 4
  %67 = load ptr, ptr %11, align 8
  %68 = getelementptr inbounds %struct._X11SDOps, ptr %67, i32 0, i32 19
  %69 = getelementptr inbounds %struct.ShmPixmapData, ptr %68, i32 0, i32 0
  store ptr null, ptr %69, align 8
  %70 = load ptr, ptr %11, align 8
  %71 = getelementptr inbounds %struct._X11SDOps, ptr %70, i32 0, i32 19
  %72 = getelementptr inbounds %struct.ShmPixmapData, ptr %71, i32 0, i32 2
  store i8 0, ptr %72, align 4
  %73 = load ptr, ptr %11, align 8
  %74 = getelementptr inbounds %struct._X11SDOps, ptr %73, i32 0, i32 19
  %75 = getelementptr inbounds %struct.ShmPixmapData, ptr %74, i32 0, i32 3
  store i64 0, ptr %75, align 8
  %76 = load ptr, ptr %11, align 8
  %77 = getelementptr inbounds %struct._X11SDOps, ptr %76, i32 0, i32 19
  %78 = getelementptr inbounds %struct.ShmPixmapData, ptr %77, i32 0, i32 4
  store i8 0, ptr %78, align 8
  %79 = load ptr, ptr %11, align 8
  %80 = getelementptr inbounds %struct._X11SDOps, ptr %79, i32 0, i32 19
  %81 = getelementptr inbounds %struct.ShmPixmapData, ptr %80, i32 0, i32 5
  store i64 0, ptr %81, align 8
  %82 = load ptr, ptr %11, align 8
  %83 = getelementptr inbounds %struct._X11SDOps, ptr %82, i32 0, i32 19
  %84 = getelementptr inbounds %struct.ShmPixmapData, ptr %83, i32 0, i32 6
  store i64 0, ptr %84, align 8
  %85 = load ptr, ptr %11, align 8
  %86 = getelementptr inbounds %struct._X11SDOps, ptr %85, i32 0, i32 19
  %87 = getelementptr inbounds %struct.ShmPixmapData, ptr %86, i32 0, i32 7
  store i32 0, ptr %87, align 8
  %88 = load ptr, ptr %11, align 8
  %89 = getelementptr inbounds %struct._X11SDOps, ptr %88, i32 0, i32 19
  %90 = getelementptr inbounds %struct.ShmPixmapData, ptr %89, i32 0, i32 8
  store i32 0, ptr %90, align 4
  %91 = load ptr, ptr %11, align 8
  %92 = getelementptr inbounds %struct._X11SDOps, ptr %91, i32 0, i32 19
  %93 = getelementptr inbounds %struct.ShmPixmapData, ptr %92, i32 0, i32 10
  store i32 2, ptr %93, align 4
  %94 = load ptr, ptr %6, align 8
  %95 = load ptr, ptr %94, align 8
  %96 = getelementptr inbounds %struct.JNINativeInterface_, ptr %95, i32 0, i32 101
  %97 = load ptr, ptr %96, align 8
  %98 = load ptr, ptr %6, align 8
  %99 = load ptr, ptr %9, align 8
  %100 = load ptr, ptr @x11GraphicsConfigIDs, align 8
  %101 = call i64 %97(ptr noundef %98, ptr noundef %99, ptr noundef %100)
  %102 = inttoptr i64 %101 to ptr
  %103 = load ptr, ptr %11, align 8
  %104 = getelementptr inbounds %struct._X11SDOps, ptr %103, i32 0, i32 11
  store ptr %102, ptr %104, align 8
  %105 = load ptr, ptr %11, align 8
  %106 = getelementptr inbounds %struct._X11SDOps, ptr %105, i32 0, i32 11
  %107 = load ptr, ptr %106, align 8
  %108 = icmp eq ptr %107, null
  br i1 %108, label %109, label %111

109:                                              ; preds = %55
  %110 = load ptr, ptr %6, align 8
  call void @JNU_ThrowNullPointerException(ptr noundef %110, ptr noundef @.str.10)
  br label %151

111:                                              ; preds = %55
  %112 = load i32, ptr %10, align 4
  %113 = icmp sgt i32 %112, 12
  br i1 %113, label %114, label %138

114:                                              ; preds = %111
  %115 = load ptr, ptr %11, align 8
  %116 = getelementptr inbounds %struct._X11SDOps, ptr %115, i32 0, i32 11
  %117 = load ptr, ptr %116, align 8
  %118 = getelementptr inbounds %struct._AwtGraphicsConfigData, ptr %117, i32 0, i32 2
  %119 = getelementptr inbounds %struct.XVisualInfo, ptr %118, i32 0, i32 5
  %120 = load i64, ptr %119, align 8
  %121 = load ptr, ptr %11, align 8
  %122 = getelementptr inbounds %struct._X11SDOps, ptr %121, i32 0, i32 11
  %123 = load ptr, ptr %122, align 8
  %124 = getelementptr inbounds %struct._AwtGraphicsConfigData, ptr %123, i32 0, i32 2
  %125 = getelementptr inbounds %struct.XVisualInfo, ptr %124, i32 0, i32 6
  %126 = load i64, ptr %125, align 8
  %127 = or i64 %120, %126
  %128 = load ptr, ptr %11, align 8
  %129 = getelementptr inbounds %struct._X11SDOps, ptr %128, i32 0, i32 11
  %130 = load ptr, ptr %129, align 8
  %131 = getelementptr inbounds %struct._AwtGraphicsConfigData, ptr %130, i32 0, i32 2
  %132 = getelementptr inbounds %struct.XVisualInfo, ptr %131, i32 0, i32 7
  %133 = load i64, ptr %132, align 8
  %134 = or i64 %127, %133
  %135 = trunc i64 %134 to i32
  %136 = load ptr, ptr %11, align 8
  %137 = getelementptr inbounds %struct._X11SDOps, ptr %136, i32 0, i32 10
  store i32 %135, ptr %137, align 4
  br label %148

138:                                              ; preds = %111
  %139 = load i32, ptr %10, align 4
  %140 = icmp eq i32 %139, 12
  br i1 %140, label %141, label %144

141:                                              ; preds = %138
  %142 = load ptr, ptr %11, align 8
  %143 = getelementptr inbounds %struct._X11SDOps, ptr %142, i32 0, i32 10
  store i32 4095, ptr %143, align 4
  br label %147

144:                                              ; preds = %138
  %145 = load ptr, ptr %11, align 8
  %146 = getelementptr inbounds %struct._X11SDOps, ptr %145, i32 0, i32 10
  store i32 255, ptr %146, align 4
  br label %147

147:                                              ; preds = %144, %141
  br label %148

148:                                              ; preds = %147, %114
  %149 = load ptr, ptr %11, align 8
  %150 = getelementptr inbounds %struct._X11SDOps, ptr %149, i32 0, i32 18
  store i64 0, ptr %150, align 8
  br label %151

151:                                              ; preds = %148, %109, %50, %19
  ret void
}