; Function Attrs: nounwind uwtable
define void @Java_sun_java2d_x11_XSurfaceData_initOps(ptr noundef %0, ptr noundef %1, ptr noundef %2, ptr noundef %3, i32 noundef %4) local_unnamed_addr #0 {
  %6 = alloca i8, align 1
  %7 = tail call ptr @SurfaceData_InitOps(ptr noundef %0, ptr noundef %1, i32 noundef 232) #18
  %8 = icmp eq ptr %7, null
  br i1 %8, label %9, label %10

9:                                                ; preds = %5
  tail call void @JNU_ThrowOutOfMemoryError(ptr noundef %0, ptr noundef nonnull @.str.7) #18
  br label %63

10:                                               ; preds = %5
  store ptr @X11SD_Lock, ptr %7, align 8
  %11 = getelementptr inbounds i8, ptr %7, i64 8
  store ptr @X11SD_GetRasInfo, ptr %11, align 8
  %12 = getelementptr inbounds i8, ptr %7, i64 24
  store ptr @X11SD_Unlock, ptr %12, align 8
  %13 = getelementptr inbounds i8, ptr %7, i64 40
  store ptr @X11SD_Dispose, ptr %13, align 8
  %14 = getelementptr inbounds i8, ptr %7, i64 56
  store ptr @X11SD_GetPixmapWithBg, ptr %14, align 8
  %15 = getelementptr inbounds i8, ptr %7, i64 64
  store ptr @X11SD_ReleasePixmapWithBg, ptr %15, align 8
  %.not = icmp eq ptr %2, null
  br i1 %.not, label %20, label %16

16:                                               ; preds = %10
  %17 = call i64 (ptr, ptr, ptr, ptr, ptr, ...) @JNU_CallMethodByName(ptr noundef %0, ptr noundef nonnull %6, ptr noundef nonnull %2, ptr noundef nonnull @.str.8, ptr noundef nonnull @.str.9) #18
  %18 = getelementptr inbounds i8, ptr %7, i64 88
  store i64 %17, ptr %18, align 8
  %19 = load i8, ptr %6, align 1
  %.not47 = icmp eq i8 %19, 0
  br i1 %.not47, label %22, label %63

20:                                               ; preds = %10
  %21 = getelementptr inbounds i8, ptr %7, i64 88
  store i64 0, ptr %21, align 8
  br label %22

22:                                               ; preds = %16, %20
  %23 = getelementptr inbounds i8, ptr %7, i64 112
  store i32 %4, ptr %23, align 8
  %24 = getelementptr inbounds i8, ptr %7, i64 73
  store i8 0, ptr %24, align 1
  %25 = getelementptr inbounds i8, ptr %7, i64 136
  store i64 0, ptr %25, align 8
  %26 = getelementptr inbounds i8, ptr %7, i64 144
  store i32 0, ptr %26, align 8
  %27 = getelementptr inbounds i8, ptr %7, i64 148
  store i8 0, ptr %27, align 4
  %28 = getelementptr inbounds i8, ptr %7, i64 168
  store ptr null, ptr %28, align 8
  %29 = getelementptr inbounds i8, ptr %7, i64 180
  store i8 0, ptr %29, align 4
  %30 = getelementptr inbounds i8, ptr %7, i64 184
  store i64 0, ptr %30, align 8
  %31 = getelementptr inbounds i8, ptr %7, i64 192
  store i8 0, ptr %31, align 8
  %32 = getelementptr inbounds i8, ptr %7, i64 200
  %33 = getelementptr inbounds i8, ptr %7, i64 228
  call void @llvm.memset.p0.i64(ptr noundef nonnull align 8 dereferenceable(24) %32, i8 0, i64 24, i1 false)
  store i32 2, ptr %33, align 4
  %34 = load ptr, ptr %0, align 8
  %35 = getelementptr inbounds i8, ptr %34, i64 808
  %36 = load ptr, ptr %35, align 8
  %37 = load ptr, ptr @x11GraphicsConfigIDs, align 8
  %38 = call i64 %36(ptr noundef nonnull %0, ptr noundef %3, ptr noundef %37) #18
  %39 = inttoptr i64 %38 to ptr
  %40 = getelementptr inbounds i8, ptr %7, i64 120
  store ptr %39, ptr %40, align 8
  %41 = icmp eq i64 %38, 0
  br i1 %41, label %42, label %43

42:                                               ; preds = %22
  call void @JNU_ThrowNullPointerException(ptr noundef nonnull %0, ptr noundef nonnull @.str.10) #18
  br label %63

43:                                               ; preds = %22
  %44 = icmp sgt i32 %4, 12
  br i1 %44, label %45, label %56

45:                                               ; preds = %43
  %46 = getelementptr inbounds i8, ptr %39, i64 48
  %47 = load i64, ptr %46, align 8
  %48 = getelementptr inbounds i8, ptr %39, i64 56
  %49 = load i64, ptr %48, align 8
  %50 = or i64 %49, %47
  %51 = getelementptr inbounds i8, ptr %39, i64 64
  %52 = load i64, ptr %51, align 8
  %53 = or i64 %50, %52
  %54 = trunc i64 %53 to i32
  %55 = getelementptr inbounds i8, ptr %7, i64 116
  store i32 %54, ptr %55, align 4
  br label %61

56:                                               ; preds = %43
  %57 = icmp eq i32 %4, 12
  %58 = getelementptr inbounds i8, ptr %7, i64 116
  br i1 %57, label %59, label %60

59:                                               ; preds = %56
  store i32 4095, ptr %58, align 4
  br label %61

60:                                               ; preds = %56
  store i32 255, ptr %58, align 4
  br label %61

61:                                               ; preds = %59, %60, %45
  %62 = getelementptr inbounds i8, ptr %7, i64 160
  store i64 0, ptr %62, align 8
  br label %63

63:                                               ; preds = %16, %61, %42, %9
  ret void
}